; Function Attrs: mustprogress nounwind uwtable
define hidden void @_ZN14JfrTypeManager18create_thread_blobEP10JavaThreadmP7oopDesc(ptr dead_on_unwind noalias writable sret(%class.RefCountHandle) align 8 %0, ptr noundef %1, i64 noundef %2, ptr noundef %3) local_unnamed_addr #0 align 2 {
  %5 = alloca %class.JfrCheckpointWriter, align 8
  %6 = alloca %class.JfrThreadConstant, align 8
  %7 = getelementptr inbounds i8, ptr %1, i64 800
  %8 = load ptr, ptr %7, align 8
  %9 = getelementptr inbounds i8, ptr %8, i64 24
  %10 = load ptr, ptr %9, align 8
  %11 = getelementptr inbounds i8, ptr %8, i64 32
  %12 = load ptr, ptr %11, align 8
  %13 = getelementptr inbounds i8, ptr %8, i64 40
  %14 = load ptr, ptr %13, align 8
  %15 = getelementptr inbounds i8, ptr %8, i64 8
  %16 = load i64, ptr %15, align 8
  call void @_ZN19JfrCheckpointWriterC1EP6Threadb17JfrCheckpointType23JfrCheckpointBufferKind(ptr noundef nonnull align 8 dereferenceable(73) %5, ptr noundef %1, i1 noundef zeroext true, i32 noundef 8, i32 noundef 1) #8
  call void @_ZN19JfrCheckpointWriter10write_typeE9JfrTypeId(ptr noundef nonnull align 8 dereferenceable(73) %5, i32 noundef 179) #8
  call void @_ZN19JfrCheckpointWriter11write_countEj(ptr noundef nonnull align 8 dereferenceable(73) %5, i32 noundef 1) #8
  store ptr getelementptr inbounds inrange(-16, 32) (i8, ptr @_ZTV17JfrThreadConstant, i64 16), ptr %6, align 8
  %17 = getelementptr inbounds i8, ptr %6, i64 8
  store ptr %1, ptr %17, align 8
  %18 = getelementptr inbounds i8, ptr %6, i64 16
  store i64 %2, ptr %18, align 8
  %19 = getelementptr inbounds i8, ptr %6, i64 24
  store ptr %3, ptr %19, align 8
  %20 = getelementptr inbounds i8, ptr %6, i64 32
  store ptr null, ptr %20, align 8
  %21 = getelementptr inbounds i8, ptr %6, i64 40
  store i32 -1, ptr %21, align 8
  call void @_ZN17JfrThreadConstant9serializeER19JfrCheckpointWriter(ptr noundef nonnull align 8 dereferenceable(44) %6, ptr noundef nonnull align 8 dereferenceable(73) %5) #8
  call void @_ZN19JfrCheckpointWriter4moveEPK20JfrCheckpointContext(ptr dead_on_unwind writable sret(%class.RefCountHandle) align 8 %0, ptr noundef nonnull align 8 dereferenceable(73) %5, ptr noundef null) #8
  call void @_ZN19JfrCheckpointWriterD1Ev(ptr noundef nonnull align 8 dereferenceable(73) %5) #8
  %22 = load ptr, ptr %10, align 8
  %.not.i.i.i.i = icmp eq ptr %22, null
  br i1 %.not.i.i.i.i, label %24, label %23

23:                                               ; preds = %4
  call void @_ZN5Arena17set_size_in_bytesEm(ptr noundef nonnull align 8 dereferenceable(48) %8, i64 noundef %16) #8
  call void @_ZN5Chunk9next_chopEPS_(ptr noundef nonnull %10) #8
  br label %24

24:                                               ; preds = %23, %4
  %25 = load ptr, ptr %11, align 8
  %.not8.i.i.i.i = icmp eq ptr %25, %12
  br i1 %.not8.i.i.i.i, label %_ZN12ResourceMarkD2Ev.exit, label %26

26:                                               ; preds = %24
  store ptr %10, ptr %9, align 8
  store ptr %12, ptr %11, align 8
  store ptr %14, ptr %13, align 8
  br label %_ZN12ResourceMarkD2Ev.exit

_ZN12ResourceMarkD2Ev.exit:                       ; preds = %24, %26
  ret void
}